target datalayout = "e-m:e-p270:32:32-p271:32:32-p272:64:64-i64:64-i128:128-f80:128-n8:16:32:64-S128"
target triple = "x86_64-pc-linux-gnu"

@.str = private unnamed_addr constant [102 x i8] c"generated/home/dtcxzyw/WorkSpace/Projects/compilers/llvm-opt-benchmark/bench/hdf5/hdf5/src/H5Gdense.c\00", align 1
@H5E_SYM_g = external global i64, align 8
@H5E_CANTCOPY_g = external global i64, align 8
@.str.26 = private unnamed_addr constant [24 x i8] c"can't copy link message\00", align 1
@__func__.H5G__dense_lookup_cb = private unnamed_addr constant [21 x i8] c"H5G__dense_lookup_cb\00", align 1

; Function Attrs: nounwind uwtable
define internal i32 @H5G__dense_lookup_cb(ptr noundef %0, ptr noundef %1) #0 {
  %3 = alloca ptr, align 8
  %4 = alloca ptr, align 8
  %5 = alloca ptr, align 8
  %6 = alloca ptr, align 8
  %7 = alloca i32, align 4
  %8 = alloca i8, align 1
  store ptr %0, ptr %3, align 8
  store ptr %1, ptr %4, align 8
  %9 = load ptr, ptr %3, align 8
  store ptr %9, ptr %5, align 8
  %10 = load ptr, ptr %4, align 8
  store ptr %10, ptr %6, align 8
  store i32 0, ptr %7, align 4
  store i8 0, ptr %8, align 1
  %11 = load ptr, ptr %5, align 8
  %12 = load ptr, ptr %6, align 8
  %13 = call ptr @H5O_msg_copy(i32 noundef 6, ptr noundef %11, ptr noundef %12)
  %14 = icmp eq ptr %13, null
  br i1 %14, label %15, label %30

15:                                               ; preds = %2
  br label %16

16:                                               ; preds = %15
  br label %17

17:                                               ; preds = %16
  br label %18

18:                                               ; preds = %17
  %19 = load i64, ptr @H5E_SYM_g, align 8
  %20 = load i64, ptr @H5E_CANTCOPY_g, align 8
  %21 = call i32 (ptr, ptr, i32, i64, i64, ptr, ...) @H5E_printf_stack(ptr noundef @.str, ptr noundef @__func__.H5G__dense_lookup_cb, i32 noundef 459, i64 noundef %19, i64 noundef %20, ptr noundef @.str.26)
  br label %22

22:                                               ; preds = %18
  store i8 1, ptr %8, align 1
  %23 = load i8, ptr %8, align 1
  %24 = trunc i8 %23 to i1
  %25 = zext i1 %24 to i8
  store i8 %25, ptr %8, align 1
  br label %26

26:                                               ; preds = %22
  br label %27

27:                                               ; preds = %26
  store i32 -1, ptr %7, align 4
  br label %31

28:                                               ; No predecessors!
  br label %29

29:                                               ; preds = %28
  br label %30

30:                                               ; preds = %29, %2
  br label %31

31:                                               ; preds = %30, %27
  %32 = load i32, ptr %7, align 4
  ret i32 %32
}