; Function Attrs: nounwind uwtable
define internal range(i32 -1, 1) i32 @H5G__dense_lookup_cb(ptr noundef %0, ptr noundef %1) #0 {
  %3 = tail call ptr @H5O_msg_copy(i32 noundef 6, ptr noundef %0, ptr noundef %1) #8
  %4 = icmp eq ptr %3, null
  br i1 %4, label %5, label %9

5:                                                ; preds = %2
  %6 = load i64, ptr @H5E_SYM_g, align 8
  %7 = load i64, ptr @H5E_CANTCOPY_g, align 8
  %8 = tail call i32 (ptr, ptr, i32, i64, i64, ptr, ...) @H5E_printf_stack(ptr noundef nonnull @.str, ptr noundef nonnull @__func__.H5G__dense_lookup_cb, i32 noundef 459, i64 noundef %6, i64 noundef %7, ptr noundef nonnull @.str.26) #8
  br label %9

9:                                                ; preds = %2, %5
  %.0 = phi i32 [ -1, %5 ], [ 0, %2 ]
  ret i32 %.0
}